; Function Attrs: mustprogress nounwind uwtable
define hidden noundef ptr @_ZNK12MachProjNode8adr_typeEv(ptr noundef nonnull align 8 dereferenceable(164) %0) unnamed_addr #6 align 2 {
  %2 = load ptr, ptr %0, align 8
  %3 = getelementptr inbounds i8, ptr %2, i64 40
  %4 = load ptr, ptr %3, align 8
  %5 = tail call noundef ptr %4(ptr noundef nonnull align 8 dereferenceable(164) %0) #13
  %6 = load ptr, ptr @_ZN4Type6MEMORYE, align 8
  %7 = icmp eq ptr %5, %6
  br i1 %7, label %8, label %18

8:                                                ; preds = %1
  %9 = getelementptr inbounds i8, ptr %0, i64 8
  %10 = load ptr, ptr %9, align 8
  %11 = load ptr, ptr %10, align 8
  %12 = icmp eq ptr %11, null
  br i1 %12, label %18, label %13

13:                                               ; preds = %8
  %14 = load ptr, ptr %11, align 8
  %15 = getelementptr inbounds i8, ptr %14, i64 48
  %16 = load ptr, ptr %15, align 8
  %17 = tail call noundef ptr %16(ptr noundef nonnull align 8 dereferenceable(52) %11) #13
  br label %18

18:                                               ; preds = %1, %8, %13
  %.0 = phi ptr [ %17, %13 ], [ null, %8 ], [ null, %1 ]
  ret ptr %.0
}